target datalayout = "e-m:e-p270:32:32-p271:32:32-p272:64:64-i64:64-i128:128-f80:128-n8:16:32:64-S128"
target triple = "x86_64-pc-linux-gnu"

%struct.Vec_Wrd_t_ = type { i32, i32, ptr }

@.str.19 = private unnamed_addr constant [21 x i8] c"Total errors = %d.  \00", align 1
@.str.20 = private unnamed_addr constant [35 x i8] c"Density of output patterns %8.4f.\0A\00", align 1

; Function Attrs: inlinehint nounwind uwtable
define internal i32 @Abc_TtCountOnes(i64 noundef %0) #3 {
  %2 = alloca i64, align 8
  store i64 %0, ptr %2, align 8, !tbaa !79
  %3 = load i64, ptr %2, align 8, !tbaa !79
  %4 = load i64, ptr %2, align 8, !tbaa !79
  %5 = lshr i64 %4, 1
  %6 = and i64 %5, 6148914691236517205
  %7 = sub i64 %3, %6
  store i64 %7, ptr %2, align 8, !tbaa !79
  %8 = load i64, ptr %2, align 8, !tbaa !79
  %9 = and i64 %8, 3689348814741910323
  %10 = load i64, ptr %2, align 8, !tbaa !79
  %11 = lshr i64 %10, 2
  %12 = and i64 %11, 3689348814741910323
  %13 = add i64 %9, %12
  store i64 %13, ptr %2, align 8, !tbaa !79
  %14 = load i64, ptr %2, align 8, !tbaa !79
  %15 = load i64, ptr %2, align 8, !tbaa !79
  %16 = lshr i64 %15, 4
  %17 = add i64 %14, %16
  %18 = and i64 %17, 1085102592571150095
  store i64 %18, ptr %2, align 8, !tbaa !79
  %19 = load i64, ptr %2, align 8, !tbaa !79
  %20 = load i64, ptr %2, align 8, !tbaa !79
  %21 = lshr i64 %20, 8
  %22 = add i64 %19, %21
  store i64 %22, ptr %2, align 8, !tbaa !79
  %23 = load i64, ptr %2, align 8, !tbaa !79
  %24 = load i64, ptr %2, align 8, !tbaa !79
  %25 = lshr i64 %24, 16
  %26 = add i64 %23, %25
  store i64 %26, ptr %2, align 8, !tbaa !79
  %27 = load i64, ptr %2, align 8, !tbaa !79
  %28 = load i64, ptr %2, align 8, !tbaa !79
  %29 = lshr i64 %28, 32
  %30 = add i64 %27, %29
  store i64 %30, ptr %2, align 8, !tbaa !79
  %31 = load i64, ptr %2, align 8, !tbaa !79
  %32 = and i64 %31, 255
  %33 = trunc i64 %32 to i32
  ret i32 %33
}

; Function Attrs: inlinehint nounwind uwtable
define internal i32 @Abc_TtCountOnes2(i64 noundef %0) #3 {
  %2 = alloca i64, align 8
  store i64 %0, ptr %2, align 8, !tbaa !79
  %3 = load i64, ptr %2, align 8, !tbaa !79
  %4 = icmp ne i64 %3, 0
  br i1 %4, label %5, label %8

5:                                                ; preds = %1
  %6 = load i64, ptr %2, align 8, !tbaa !79
  %7 = call i32 @Abc_TtCountOnes(i64 noundef %6)
  br label %9

8:                                                ; preds = %1
  br label %9

9:                                                ; preds = %8, %5
  %10 = phi i32 [ %7, %5 ], [ 0, %8 ]
  ret i32 %10
}

; Function Attrs: inlinehint nounwind uwtable
define internal i32 @Abc_TtCountOnesVec(ptr noundef %0, i32 noundef %1) #3 {
  %3 = alloca ptr, align 8
  %4 = alloca i32, align 4
  %5 = alloca i32, align 4
  %6 = alloca i32, align 4
  store ptr %0, ptr %3, align 8, !tbaa !30
  store i32 %1, ptr %4, align 4, !tbaa !14
  call void @llvm.lifetime.start.p0(i64 4, ptr %5) #13
  call void @llvm.lifetime.start.p0(i64 4, ptr %6) #13
  store i32 0, ptr %6, align 4, !tbaa !14
  store i32 0, ptr %5, align 4, !tbaa !14
  br label %7

7:                                                ; preds = %20, %2
  %8 = load i32, ptr %5, align 4, !tbaa !14
  %9 = load i32, ptr %4, align 4, !tbaa !14
  %10 = icmp slt i32 %8, %9
  br i1 %10, label %11, label %23

11:                                               ; preds = %7
  %12 = load ptr, ptr %3, align 8, !tbaa !30
  %13 = load i32, ptr %5, align 4, !tbaa !14
  %14 = sext i32 %13 to i64
  %15 = getelementptr inbounds i64, ptr %12, i64 %14
  %16 = load i64, ptr %15, align 8, !tbaa !79
  %17 = call i32 @Abc_TtCountOnes2(i64 noundef %16)
  %18 = load i32, ptr %6, align 4, !tbaa !14
  %19 = add nsw i32 %18, %17
  store i32 %19, ptr %6, align 4, !tbaa !14
  br label %20

20:                                               ; preds = %11
  %21 = load i32, ptr %5, align 4, !tbaa !14
  %22 = add nsw i32 %21, 1
  store i32 %22, ptr %5, align 4, !tbaa !14
  br label %7, !llvm.loop !93

23:                                               ; preds = %7
  %24 = load i32, ptr %6, align 4, !tbaa !14
  call void @llvm.lifetime.end.p0(i64 4, ptr %6) #13
  call void @llvm.lifetime.end.p0(i64 4, ptr %5) #13
  ret i32 %24
}

; Function Attrs: inlinehint nounwind uwtable
define internal i32 @Vec_WrdSize(ptr noundef %0) #3 {
  %2 = alloca ptr, align 8
  store ptr %0, ptr %2, align 8, !tbaa !71
  %3 = load ptr, ptr %2, align 8, !tbaa !71
  %4 = getelementptr inbounds nuw %struct.Vec_Wrd_t_, ptr %3, i32 0, i32 1
  %5 = load i32, ptr %4, align 4, !tbaa !76
  ret i32 %5
}

; Function Attrs: inlinehint nounwind uwtable
define internal ptr @Vec_WrdArray(ptr noundef %0) #3 {
  %2 = alloca ptr, align 8
  store ptr %0, ptr %2, align 8, !tbaa !71
  %3 = load ptr, ptr %2, align 8, !tbaa !71
  %4 = getelementptr inbounds nuw %struct.Vec_Wrd_t_, ptr %3, i32 0, i32 2
  %5 = load ptr, ptr %4, align 8, !tbaa !78
  ret ptr %5
}

; Function Attrs: nounwind uwtable
define i32 @Gia_ManSimInfoEval_old(ptr noundef %0, ptr noundef %1, ptr noundef %2) #0 {
  %4 = alloca ptr, align 8
  %5 = alloca ptr, align 8
  %6 = alloca ptr, align 8
  %7 = alloca i32, align 4
  store ptr %0, ptr %4, align 8, !tbaa !34
  store ptr %1, ptr %5, align 8, !tbaa !71
  store ptr %2, ptr %6, align 8, !tbaa !71
  call void @llvm.lifetime.start.p0(i64 4, ptr %7) #13
  %8 = load ptr, ptr %4, align 8, !tbaa !34
  %9 = load ptr, ptr %5, align 8, !tbaa !71
  %10 = load ptr, ptr %6, align 8, !tbaa !71
  %11 = call i32 @Gia_ManSimEvalOne2(ptr noundef %8, ptr noundef %9, ptr noundef %10)
  store i32 %11, ptr %7, align 4, !tbaa !14
  %12 = load i32, ptr %7, align 4, !tbaa !14
  %13 = call i32 (ptr, ...) @printf(ptr noundef @.str.19, i32 noundef %12)
  %14 = load ptr, ptr %6, align 8, !tbaa !71
  %15 = call ptr @Vec_WrdArray(ptr noundef %14)
  %16 = load ptr, ptr %6, align 8, !tbaa !71
  %17 = call i32 @Vec_WrdSize(ptr noundef %16)
  %18 = call i32 @Abc_TtCountOnesVec(ptr noundef %15, i32 noundef %17)
  %19 = sitofp i32 %18 to float
  %20 = load ptr, ptr %6, align 8, !tbaa !71
  %21 = call i32 @Vec_WrdSize(ptr noundef %20)
  %22 = mul nsw i32 64, %21
  %23 = sitofp i32 %22 to float
  %24 = fdiv float %19, %23
  %25 = fpext float %24 to double
  %26 = call i32 (ptr, ...) @printf(ptr noundef @.str.20, double noundef %25)
  %27 = load i32, ptr %7, align 4, !tbaa !14
  call void @llvm.lifetime.end.p0(i64 4, ptr %7) #13
  ret i32 %27
}