; Function Attrs: nounwind uwtable
define noundef i32 @Gia_ManSimInfoEval_old(ptr noundef readonly captures(none) %0, ptr noundef readonly captures(none) %1, ptr noundef readonly captures(none) %2) local_unnamed_addr #0 {
  %4 = tail call i32 @Gia_ManSimEvalOne2(ptr noundef %0, ptr noundef %1, ptr noundef %2)
  %5 = tail call i32 (ptr, ...) @printf(ptr noundef nonnull dereferenceable(1) @.str.19, i32 noundef %4)
  %6 = getelementptr i8, ptr %2, i64 8
  %.val = load ptr, ptr %6, align 8, !tbaa !59
  %7 = getelementptr i8, ptr %2, i64 4
  %.val8 = load i32, ptr %7, align 4, !tbaa !60
  %8 = icmp sgt i32 %.val8, 0
  br i1 %8, label %.lr.ph.preheader.i, label %Abc_TtCountOnesVec.exit

.lr.ph.preheader.i:                               ; preds = %3
  %wide.trip.count.i = zext nneg i32 %.val8 to i64
  br label %.lr.ph.i

.lr.ph.i:                                         ; preds = %Abc_TtCountOnes2.exit.i, %.lr.ph.preheader.i
  %indvars.iv.i = phi i64 [ 0, %.lr.ph.preheader.i ], [ %indvars.iv.next.i, %Abc_TtCountOnes2.exit.i ]
  %.08.i = phi i32 [ 0, %.lr.ph.preheader.i ], [ %31, %Abc_TtCountOnes2.exit.i ]
  %9 = getelementptr inbounds nuw i64, ptr %.val, i64 %indvars.iv.i
  %10 = load i64, ptr %9, align 8, !tbaa !62
  %.not.i.i = icmp eq i64 %10, 0
  br i1 %.not.i.i, label %Abc_TtCountOnes2.exit.i, label %11

11:                                               ; preds = %.lr.ph.i
  %12 = lshr i64 %10, 1
  %13 = and i64 %12, 6148914691236517205
  %14 = sub i64 %10, %13
  %15 = and i64 %14, 3689348814741910323
  %16 = lshr i64 %14, 2
  %17 = and i64 %16, 3689348814741910323
  %18 = add nuw nsw i64 %17, %15
  %19 = lshr i64 %18, 4
  %20 = add nuw nsw i64 %19, %18
  %21 = and i64 %20, 1085102592571150095
  %22 = lshr i64 %21, 8
  %23 = add nuw nsw i64 %22, %21
  %24 = lshr i64 %23, 16
  %25 = add nuw nsw i64 %24, %23
  %26 = lshr i64 %25, 32
  %27 = add nuw nsw i64 %26, %25
  %28 = trunc i64 %27 to i32
  %29 = and i32 %28, 255
  br label %Abc_TtCountOnes2.exit.i

Abc_TtCountOnes2.exit.i:                          ; preds = %11, %.lr.ph.i
  %30 = phi i32 [ %29, %11 ], [ 0, %.lr.ph.i ]
  %31 = add nuw nsw i32 %30, %.08.i
  %indvars.iv.next.i = add nuw nsw i64 %indvars.iv.i, 1
  %exitcond.not.i = icmp eq i64 %indvars.iv.next.i, %wide.trip.count.i
  br i1 %exitcond.not.i, label %Abc_TtCountOnesVec.exit.loopexit, label %.lr.ph.i, !llvm.loop !80

Abc_TtCountOnesVec.exit.loopexit:                 ; preds = %Abc_TtCountOnes2.exit.i
  %32 = uitofp nneg i32 %31 to float
  br label %Abc_TtCountOnesVec.exit

Abc_TtCountOnesVec.exit:                          ; preds = %Abc_TtCountOnesVec.exit.loopexit, %3
  %.0.lcssa.i = phi float [ 0.000000e+00, %3 ], [ %32, %Abc_TtCountOnesVec.exit.loopexit ]
  %33 = shl nsw i32 %.val8, 6
  %34 = sitofp i32 %33 to float
  %35 = fdiv float %.0.lcssa.i, %34
  %36 = fpext float %35 to double
  %37 = tail call i32 (ptr, ...) @printf(ptr noundef nonnull dereferenceable(1) @.str.20, double noundef %36)
  ret i32 %4
}